; Function Attrs: mustprogress uwtable
define noundef nonnull align 8 dereferenceable(72) ptr @_ZN32pxrInternal_v0_24__pxrReserved__10TsKeyFrameaSERKS0_(ptr noundef nonnull returned align 8 dereferenceable(72) %0, ptr noundef nonnull align 8 dereferenceable(72) %1) local_unnamed_addr #0 align 2 {
  %.not = icmp eq ptr %0, %1
  br i1 %.not, label %9, label %3

3:                                                ; preds = %2
  %4 = load ptr, ptr %0, align 8
  %5 = load ptr, ptr %4, align 8
  tail call void %5(ptr noundef nonnull align 8 dereferenceable(16) %0) #20
  %6 = load ptr, ptr %1, align 8
  %7 = getelementptr inbounds i8, ptr %6, i64 16
  %8 = load ptr, ptr %7, align 8
  tail call void %8(ptr noundef nonnull align 8 dereferenceable(16) %1, ptr noundef nonnull %0)
  br label %9

9:                                                ; preds = %3, %2
  ret ptr %0
}